target datalayout = "e-m:e-p270:32:32-p271:32:32-p272:64:64-i64:64-i128:128-f80:128-n8:16:32:64-S128"
target triple = "x86_64-pc-linux-gnu"

%class.lackr_model_constructor = type <{ ptr, ptr, i32, [4 x i8], %class.vector, %class.ref, i32, [4 x i8] }>
%class.vector = type { ptr }
%class.ref = type { ptr }
%class.ackr_info = type <{ ptr, ptr, %class.obj_map.68, %class.obj_map.73, %class.scoped_ptr.78, %class.expr_substitution, i32, i8, [3 x i8] }>
%class.obj_map.68 = type { %class.core_hashtable.69 }
%class.core_hashtable.69 = type <{ ptr, i32, i32, i32, [4 x i8] }>
%class.obj_map.73 = type { %class.core_hashtable.74 }
%class.core_hashtable.74 = type <{ ptr, i32, i32, i32, [4 x i8] }>
%class.scoped_ptr.78 = type { ptr }
%class.expr_substitution = type <{ ptr, %class.obj_map.79, %class.scoped_ptr.84, %class.scoped_ptr.85, i8, [7 x i8] }>
%class.obj_map.79 = type { %class.core_hashtable.80 }
%class.core_hashtable.80 = type <{ ptr, i32, i32, i32, [4 x i8] }>
%class.scoped_ptr.84 = type { ptr }
%class.scoped_ptr.85 = type { ptr }
%"struct.std::pair.91" = type { ptr, ptr }

; Function Attrs: inlinehint mustprogress nounwind uwtable
define linkonce_odr hidden void @_ZSt9__advanceIPSt4pairIP3appS2_ElEvRT_T0_St26random_access_iterator_tag(ptr noundef nonnull align 8 dereferenceable(8) %0, i64 noundef %1) #9 comdat {
  %3 = alloca ptr, align 8
  %4 = alloca i64, align 8
  store ptr %0, ptr %3, align 8, !tbaa !442
  store i64 %1, ptr %4, align 8, !tbaa !219
  %5 = load i64, ptr %4, align 8, !tbaa !219
  %6 = call i1 @llvm.is.constant.i64(i64 %5)
  br i1 %6, label %7, label %14

7:                                                ; preds = %2
  %8 = load i64, ptr %4, align 8, !tbaa !219
  %9 = icmp eq i64 %8, 1
  br i1 %9, label %10, label %14

10:                                               ; preds = %7
  %11 = load ptr, ptr %3, align 8, !tbaa !442
  %12 = load ptr, ptr %11, align 8, !tbaa !411
  %13 = getelementptr inbounds nuw %"struct.std::pair.91", ptr %12, i32 1
  store ptr %13, ptr %11, align 8, !tbaa !411
  br label %30

14:                                               ; preds = %7, %2
  %15 = load i64, ptr %4, align 8, !tbaa !219
  %16 = call i1 @llvm.is.constant.i64(i64 %15)
  br i1 %16, label %17, label %24

17:                                               ; preds = %14
  %18 = load i64, ptr %4, align 8, !tbaa !219
  %19 = icmp eq i64 %18, -1
  br i1 %19, label %20, label %24

20:                                               ; preds = %17
  %21 = load ptr, ptr %3, align 8, !tbaa !442
  %22 = load ptr, ptr %21, align 8, !tbaa !411
  %23 = getelementptr inbounds %"struct.std::pair.91", ptr %22, i32 -1
  store ptr %23, ptr %21, align 8, !tbaa !411
  br label %29

24:                                               ; preds = %17, %14
  %25 = load i64, ptr %4, align 8, !tbaa !219
  %26 = load ptr, ptr %3, align 8, !tbaa !442
  %27 = load ptr, ptr %26, align 8, !tbaa !411
  %28 = getelementptr inbounds %"struct.std::pair.91", ptr %27, i64 %25
  store ptr %28, ptr %26, align 8, !tbaa !411
  br label %29

29:                                               ; preds = %24, %20
  br label %30

30:                                               ; preds = %29, %10
  ret void
}

; Function Attrs: inlinehint mustprogress nounwind uwtable
define linkonce_odr hidden void @_ZSt19__iterator_categoryIPSt4pairIP3appS2_EENSt15iterator_traitsIT_E17iterator_categoryERKS6_(ptr noundef nonnull align 8 dereferenceable(8) %0) #9 comdat {
  %2 = alloca ptr, align 8
  store ptr %0, ptr %2, align 8, !tbaa !442
  ret void
}

; Function Attrs: inlinehint mustprogress uwtable
define linkonce_odr hidden void @_ZSt7advanceIPSt4pairIP3appS2_EjEvRT_T0_(ptr noundef nonnull align 8 dereferenceable(8) %0, i32 noundef %1) #11 comdat {
  %3 = alloca ptr, align 8
  %4 = alloca i32, align 4
  %5 = alloca i64, align 8
  store ptr %0, ptr %3, align 8, !tbaa !442
  store i32 %1, ptr %4, align 4, !tbaa !35
  call void @llvm.lifetime.start.p0(i64 8, ptr %5) #3
  %6 = load i32, ptr %4, align 4, !tbaa !35
  %7 = zext i32 %6 to i64
  store i64 %7, ptr %5, align 8, !tbaa !219
  %8 = load ptr, ptr %3, align 8, !tbaa !442
  %9 = load i64, ptr %5, align 8, !tbaa !219
  %10 = load ptr, ptr %3, align 8, !tbaa !442
  call void @_ZSt19__iterator_categoryIPSt4pairIP3appS2_EENSt15iterator_traitsIT_E17iterator_categoryERKS6_(ptr noundef nonnull align 8 dereferenceable(8) %10)
  call void @_ZSt9__advanceIPSt4pairIP3appS2_ElEvRT_T0_St26random_access_iterator_tag(ptr noundef nonnull align 8 dereferenceable(8) %8, i64 noundef %9)
  call void @llvm.lifetime.end.p0(i64 8, ptr %5) #3
  ret void
}

; Function Attrs: mustprogress uwtable
define linkonce_odr hidden noundef ptr @_ZNSt14_Destroy_n_auxILb1EE11__destroy_nIPSt4pairIP3appS4_EjEET_S7_T0_(ptr noundef %0, i32 noundef %1) #4 comdat align 2 {
  %3 = alloca ptr, align 8
  %4 = alloca i32, align 4
  store ptr %0, ptr %3, align 8, !tbaa !411
  store i32 %1, ptr %4, align 4, !tbaa !35
  %5 = load i32, ptr %4, align 4, !tbaa !35
  call void @_ZSt7advanceIPSt4pairIP3appS2_EjEvRT_T0_(ptr noundef nonnull align 8 dereferenceable(8) %3, i32 noundef %5)
  %6 = load ptr, ptr %3, align 8, !tbaa !411
  ret ptr %6
}

; Function Attrs: inlinehint mustprogress uwtable
define linkonce_odr hidden noundef ptr @_ZSt10_Destroy_nIPSt4pairIP3appS2_EjET_S5_T0_(ptr noundef %0, i32 noundef %1) #11 comdat {
  %3 = alloca ptr, align 8
  %4 = alloca i32, align 4
  store ptr %0, ptr %3, align 8, !tbaa !411
  store i32 %1, ptr %4, align 4, !tbaa !35
  %5 = load ptr, ptr %3, align 8, !tbaa !411
  %6 = load i32, ptr %4, align 4, !tbaa !35
  %7 = call noundef ptr @_ZNSt14_Destroy_n_auxILb1EE11__destroy_nIPSt4pairIP3appS4_EjEET_S7_T0_(ptr noundef %5, i32 noundef %6)
  ret ptr %7
}

; Function Attrs: mustprogress nounwind uwtable
define linkonce_odr hidden void @_ZN9ackr_info7inc_refEv(ptr noundef nonnull align 8 dereferenceable(133) %0) #5 comdat align 2 {
  %2 = alloca ptr, align 8
  store ptr %0, ptr %2, align 8, !tbaa !270
  %3 = load ptr, ptr %2, align 8
  %4 = getelementptr inbounds nuw %class.ackr_info, ptr %3, i32 0, i32 6
  %5 = load i32, ptr %4, align 8, !tbaa !524
  %6 = add i32 %5, 1
  store i32 %6, ptr %4, align 8, !tbaa !524
  ret void
}

; Function Attrs: inlinehint mustprogress uwtable
define linkonce_odr hidden noundef ptr @_ZSt9destroy_nIPSt4pairIP3appS2_EjET_S5_T0_(ptr noundef %0, i32 noundef %1) #11 comdat {
  %3 = alloca ptr, align 8
  %4 = alloca i32, align 4
  store ptr %0, ptr %3, align 8, !tbaa !411
  store i32 %1, ptr %4, align 4, !tbaa !35
  %5 = load ptr, ptr %3, align 8, !tbaa !411
  %6 = load i32, ptr %4, align 4, !tbaa !35
  %7 = call noundef ptr @_ZSt10_Destroy_nIPSt4pairIP3appS2_EjET_S5_T0_(ptr noundef %5, i32 noundef %6)
  ret ptr %7
}

; Function Attrs: mustprogress nounwind uwtable
define linkonce_odr hidden noundef i32 @_ZNK6vectorISt4pairIP3appS2_ELb1EjE4sizeEv(ptr noundef nonnull align 8 dereferenceable(8) %0) #5 comdat align 2 {
  %2 = alloca i32, align 4
  %3 = alloca ptr, align 8
  store ptr %0, ptr %3, align 8, !tbaa !23
  %4 = load ptr, ptr %3, align 8
  %5 = getelementptr inbounds nuw %class.vector, ptr %4, i32 0, i32 0
  %6 = load ptr, ptr %5, align 8, !tbaa !25
  %7 = icmp eq ptr %6, null
  br i1 %7, label %8, label %9

8:                                                ; preds = %1
  store i32 0, ptr %2, align 4
  br label %14

9:                                                ; preds = %1
  %10 = getelementptr inbounds nuw %class.vector, ptr %4, i32 0, i32 0
  %11 = load ptr, ptr %10, align 8, !tbaa !25
  %12 = getelementptr inbounds i32, ptr %11, i64 -1
  %13 = load i32, ptr %12, align 4, !tbaa !35
  store i32 %13, ptr %2, align 4
  br label %14

14:                                               ; preds = %9, %8
  %15 = load i32, ptr %2, align 4
  ret i32 %15
}

; Function Attrs: mustprogress uwtable
define linkonce_odr hidden void @_ZN3refI9ackr_infoE7inc_refEv(ptr noundef nonnull align 8 dereferenceable(8) %0) #4 comdat align 2 {
  %2 = alloca ptr, align 8
  store ptr %0, ptr %2, align 8, !tbaa !10
  %3 = load ptr, ptr %2, align 8
  %4 = getelementptr inbounds nuw %class.ref, ptr %3, i32 0, i32 0
  %5 = load ptr, ptr %4, align 8, !tbaa !26
  %6 = icmp ne ptr %5, null
  br i1 %6, label %7, label %10

7:                                                ; preds = %1
  %8 = getelementptr inbounds nuw %class.ref, ptr %3, i32 0, i32 0
  %9 = load ptr, ptr %8, align 8, !tbaa !26
  call void @_ZN9ackr_info7inc_refEv(ptr noundef nonnull align 8 dereferenceable(133) %9)
  br label %10

10:                                               ; preds = %7, %1
  ret void
}

; Function Attrs: mustprogress uwtable
define linkonce_odr hidden void @_ZN6vectorISt4pairIP3appS2_ELb1EjE16destroy_elementsEv(ptr noundef nonnull align 8 dereferenceable(8) %0) #4 comdat align 2 {
  %2 = alloca ptr, align 8
  store ptr %0, ptr %2, align 8, !tbaa !23
  %3 = load ptr, ptr %2, align 8
  %4 = getelementptr inbounds nuw %class.vector, ptr %3, i32 0, i32 0
  %5 = load ptr, ptr %4, align 8, !tbaa !25
  %6 = call noundef i32 @_ZNK6vectorISt4pairIP3appS2_ELb1EjE4sizeEv(ptr noundef nonnull align 8 dereferenceable(8) %3)
  %7 = call noundef ptr @_ZSt9destroy_nIPSt4pairIP3appS2_EjET_S5_T0_(ptr noundef %5, i32 noundef %6)
  ret void
}

; Function Attrs: mustprogress uwtable
define linkonce_odr hidden void @_ZN3refI9ackr_infoEC2ERKS1_(ptr noundef nonnull align 8 dereferenceable(8) %0, ptr noundef nonnull align 8 dereferenceable(8) %1) unnamed_addr #4 comdat align 2 {
  %3 = alloca ptr, align 8
  %4 = alloca ptr, align 8
  store ptr %0, ptr %3, align 8, !tbaa !10
  store ptr %1, ptr %4, align 8, !tbaa !10
  %5 = load ptr, ptr %3, align 8
  %6 = getelementptr inbounds nuw %class.ref, ptr %5, i32 0, i32 0
  %7 = load ptr, ptr %4, align 8, !tbaa !10
  %8 = getelementptr inbounds nuw %class.ref, ptr %7, i32 0, i32 0
  %9 = load ptr, ptr %8, align 8, !tbaa !26
  store ptr %9, ptr %6, align 8, !tbaa !26
  call void @_ZN3refI9ackr_infoE7inc_refEv(ptr noundef nonnull align 8 dereferenceable(8) %5)
  ret void
}

; Function Attrs: mustprogress uwtable
define linkonce_odr hidden void @_Z7deallocIN23lackr_model_constructor3impEEvPT_(ptr noundef %0) #4 comdat {
  %2 = alloca ptr, align 8
  store ptr %0, ptr %2, align 8, !tbaa !27
  %3 = load ptr, ptr %2, align 8, !tbaa !27
  %4 = icmp eq ptr %3, null
  br i1 %4, label %5, label %6

5:                                                ; preds = %1
  br label %9

6:                                                ; preds = %1
  %7 = load ptr, ptr %2, align 8, !tbaa !27
  call void @_ZN23lackr_model_constructor3impD2Ev(ptr noundef nonnull align 8 dereferenceable(568) %7) #3
  %8 = load ptr, ptr %2, align 8, !tbaa !27
  call void @_ZN6memory10deallocateEPv(ptr noundef %8)
  br label %9

9:                                                ; preds = %6, %5
  ret void
}

; Function Attrs: mustprogress uwtable
define linkonce_odr hidden void @_ZN6vectorISt4pairIP3appS2_ELb1EjE5resetEv(ptr noundef nonnull align 8 dereferenceable(8) %0) #4 comdat align 2 {
  %2 = alloca ptr, align 8
  store ptr %0, ptr %2, align 8, !tbaa !23
  %3 = load ptr, ptr %2, align 8
  %4 = getelementptr inbounds nuw %class.vector, ptr %3, i32 0, i32 0
  %5 = load ptr, ptr %4, align 8, !tbaa !25
  %6 = icmp ne ptr %5, null
  br i1 %6, label %7, label %11

7:                                                ; preds = %1
  call void @_ZN6vectorISt4pairIP3appS2_ELb1EjE16destroy_elementsEv(ptr noundef nonnull align 8 dereferenceable(8) %3)
  %8 = getelementptr inbounds nuw %class.vector, ptr %3, i32 0, i32 0
  %9 = load ptr, ptr %8, align 8, !tbaa !25
  %10 = getelementptr inbounds i32, ptr %9, i64 -1
  store i32 0, ptr %10, align 4, !tbaa !35
  br label %11

11:                                               ; preds = %7, %1
  ret void
}

; Function Attrs: mustprogress uwtable
define hidden noundef zeroext i1 @_ZN23lackr_model_constructor5checkER3refI5modelE(ptr noundef nonnull align 8 dereferenceable(44) %0, ptr noundef nonnull align 8 dereferenceable(8) %1) #4 align 2 personality ptr @__gxx_personality_v0 {
  %3 = alloca ptr, align 8
  %4 = alloca ptr, align 8
  %5 = alloca %class.ref, align 8
  %6 = alloca ptr, align 8
  %7 = alloca i32, align 4
  %8 = alloca i8, align 1
  store ptr %0, ptr %3, align 8, !tbaa !3
  store ptr %1, ptr %4, align 8, !tbaa !28
  %9 = load ptr, ptr %3, align 8
  %10 = getelementptr inbounds nuw %class.lackr_model_constructor, ptr %9, i32 0, i32 4
  call void @_ZN6vectorISt4pairIP3appS2_ELb1EjE5resetEv(ptr noundef nonnull align 8 dereferenceable(8) %10)
  %11 = getelementptr inbounds nuw %class.lackr_model_constructor, ptr %9, i32 0, i32 0
  %12 = load ptr, ptr %11, align 8, !tbaa !12
  call void @_Z7deallocIN23lackr_model_constructor3impEEvPT_(ptr noundef %12)
  %13 = call noalias noundef ptr @_ZN6memory8allocateEm(i64 noundef 568)
  %14 = getelementptr inbounds nuw %class.lackr_model_constructor, ptr %9, i32 0, i32 1
  %15 = load ptr, ptr %14, align 8, !tbaa !30
  %16 = getelementptr inbounds nuw %class.lackr_model_constructor, ptr %9, i32 0, i32 5
  call void @_ZN3refI9ackr_infoEC2ERKS1_(ptr noundef nonnull align 8 dereferenceable(8) %5, ptr noundef nonnull align 8 dereferenceable(8) %16)
  %17 = load ptr, ptr %4, align 8, !tbaa !28
  %18 = getelementptr inbounds nuw %class.lackr_model_constructor, ptr %9, i32 0, i32 4
  invoke void @_ZN23lackr_model_constructor3impC2ER11ast_manager3refI9ackr_infoERS3_I5modelER6vectorISt4pairIP3appSC_ELb1EjE(ptr noundef nonnull align 8 dereferenceable(568) %13, ptr noundef nonnull align 8 dereferenceable(976) %15, ptr noundef %5, ptr noundef nonnull align 8 dereferenceable(8) %17, ptr noundef nonnull align 8 dereferenceable(8) %18)
          to label %19 unwind label %31

19:                                               ; preds = %2
  %20 = getelementptr inbounds nuw %class.lackr_model_constructor, ptr %9, i32 0, i32 0
  store ptr %13, ptr %20, align 8, !tbaa !12
  call void @_ZN3refI9ackr_infoED2Ev(ptr noundef nonnull align 8 dereferenceable(8) %5) #3
  call void @llvm.lifetime.start.p0(i64 1, ptr %8) #3
  %21 = getelementptr inbounds nuw %class.lackr_model_constructor, ptr %9, i32 0, i32 0
  %22 = load ptr, ptr %21, align 8, !tbaa !12
  %23 = call noundef zeroext i1 @_ZN23lackr_model_constructor3imp5checkEv(ptr noundef nonnull align 8 dereferenceable(568) %22)
  %24 = zext i1 %23 to i8
  store i8 %24, ptr %8, align 1, !tbaa !31
  %25 = load i8, ptr %8, align 1, !tbaa !31, !range !33, !noundef !34
  %26 = trunc i8 %25 to i1
  %27 = select i1 %26, i32 0, i32 1
  %28 = getelementptr inbounds nuw %class.lackr_model_constructor, ptr %9, i32 0, i32 2
  store i32 %27, ptr %28, align 8, !tbaa !21
  %29 = load i8, ptr %8, align 1, !tbaa !31, !range !33, !noundef !34
  %30 = trunc i8 %29 to i1
  call void @llvm.lifetime.end.p0(i64 1, ptr %8) #3
  ret i1 %30

31:                                               ; preds = %2
  %32 = landingpad { ptr, i32 }
          cleanup
  %33 = extractvalue { ptr, i32 } %32, 0
  store ptr %33, ptr %6, align 8
  %34 = extractvalue { ptr, i32 } %32, 1
  store i32 %34, ptr %7, align 4
  call void @_ZN3refI9ackr_infoED2Ev(ptr noundef nonnull align 8 dereferenceable(8) %5) #3
  br label %35

35:                                               ; preds = %31
  %36 = load ptr, ptr %6, align 8
  %37 = load i32, ptr %7, align 4
  %38 = insertvalue { ptr, i32 } poison, ptr %36, 0
  %39 = insertvalue { ptr, i32 } %38, i32 %37, 1
  resume { ptr, i32 } %39
}