; Function Attrs: mustprogress uwtable
define hidden noundef zeroext i1 @_ZN23lackr_model_constructor5checkER3refI5modelE(ptr noundef nonnull align 8 dereferenceable(44) %0, ptr noundef nonnull align 8 dereferenceable(8) %1) local_unnamed_addr #7 align 2 personality ptr @__gxx_personality_v0 {
  %3 = alloca %class.ref, align 8
  %4 = getelementptr inbounds nuw i8, ptr %0, i64 24
  %5 = load ptr, ptr %4, align 8, !tbaa !18
  %.not.i = icmp eq ptr %5, null
  br i1 %.not.i, label %_ZN6vectorISt4pairIP3appS2_ELb1EjE5resetEv.exit, label %6

6:                                                ; preds = %2
  %7 = getelementptr inbounds i8, ptr %5, i64 -4
  store i32 0, ptr %7, align 4, !tbaa !42
  br label %_ZN6vectorISt4pairIP3appS2_ELb1EjE5resetEv.exit

_ZN6vectorISt4pairIP3appS2_ELb1EjE5resetEv.exit:  ; preds = %2, %6
  %8 = load ptr, ptr %0, align 8, !tbaa !3
  %9 = icmp eq ptr %8, null
  br i1 %9, label %_Z7deallocIN23lackr_model_constructor3impEEvPT_.exit, label %10

10:                                               ; preds = %_ZN6vectorISt4pairIP3appS2_ELb1EjE5resetEv.exit
  tail call void @_ZN23lackr_model_constructor3impD2Ev(ptr noundef nonnull align 8 dereferenceable(568) %8) #19
  tail call void @_ZN6memory10deallocateEPv(ptr noundef nonnull %8)
  br label %_Z7deallocIN23lackr_model_constructor3impEEvPT_.exit

_Z7deallocIN23lackr_model_constructor3impEEvPT_.exit: ; preds = %_ZN6vectorISt4pairIP3appS2_ELb1EjE5resetEv.exit, %10
  %11 = tail call noalias noundef ptr @_ZN6memory8allocateEm(i64 noundef 568)
  %12 = getelementptr inbounds nuw i8, ptr %0, i64 8
  %13 = load ptr, ptr %12, align 8, !tbaa !43
  %14 = getelementptr inbounds nuw i8, ptr %0, i64 32
  %15 = load ptr, ptr %14, align 8, !tbaa !19
  store ptr %15, ptr %3, align 8, !tbaa !19
  %.not.i.i = icmp eq ptr %15, null
  br i1 %.not.i.i, label %_ZN3refI9ackr_infoEC2ERKS1_.exit, label %16

16:                                               ; preds = %_Z7deallocIN23lackr_model_constructor3impEEvPT_.exit
  %17 = getelementptr inbounds nuw i8, ptr %15, i64 128
  %18 = load i32, ptr %17, align 8, !tbaa !20
  %19 = add i32 %18, 1
  store i32 %19, ptr %17, align 8, !tbaa !20
  br label %_ZN3refI9ackr_infoEC2ERKS1_.exit

_ZN3refI9ackr_infoEC2ERKS1_.exit:                 ; preds = %_Z7deallocIN23lackr_model_constructor3impEEvPT_.exit, %16
  invoke void @_ZN23lackr_model_constructor3impC2ER11ast_manager3refI9ackr_infoERS3_I5modelER6vectorISt4pairIP3appSC_ELb1EjE(ptr noundef nonnull align 8 dereferenceable(568) %11, ptr noundef nonnull align 8 dereferenceable(976) %13, ptr noundef nonnull %3, ptr noundef nonnull align 8 dereferenceable(8) %1, ptr noundef nonnull align 8 dereferenceable(8) %4)
          to label %20 unwind label %37

20:                                               ; preds = %_ZN3refI9ackr_infoEC2ERKS1_.exit
  store ptr %11, ptr %0, align 8, !tbaa !3
  %21 = load ptr, ptr %3, align 8, !tbaa !19
  %.not.i.i5 = icmp eq ptr %21, null
  br i1 %.not.i.i5, label %_ZN3refI9ackr_infoED2Ev.exit, label %22

22:                                               ; preds = %20
  %23 = getelementptr inbounds nuw i8, ptr %21, i64 128
  %24 = load i32, ptr %23, align 8, !tbaa !20
  %25 = add i32 %24, -1
  store i32 %25, ptr %23, align 8, !tbaa !20
  %26 = icmp eq i32 %25, 0
  br i1 %26, label %27, label %_ZN3refI9ackr_infoED2Ev.exit

27:                                               ; preds = %22
  %28 = load ptr, ptr %21, align 8, !tbaa !40
  %29 = load ptr, ptr %28, align 8
  call void %29(ptr noundef nonnull align 8 dereferenceable(133) %21) #19
  invoke void @_ZN6memory10deallocateEPv(ptr noundef nonnull align 8 dereferenceable(133) %21)
          to label %._ZN3refI9ackr_infoED2Ev.exit_crit_edge unwind label %30

._ZN3refI9ackr_infoED2Ev.exit_crit_edge:          ; preds = %27
  %.pre = load ptr, ptr %0, align 8, !tbaa !3
  br label %_ZN3refI9ackr_infoED2Ev.exit

30:                                               ; preds = %27
  %31 = landingpad { ptr, i32 }
          catch ptr null
  %32 = extractvalue { ptr, i32 } %31, 0
  call void @__clang_call_terminate(ptr %32) #20
  unreachable

_ZN3refI9ackr_infoED2Ev.exit:                     ; preds = %._ZN3refI9ackr_infoED2Ev.exit_crit_edge, %20, %22
  %33 = phi ptr [ %.pre, %._ZN3refI9ackr_infoED2Ev.exit_crit_edge ], [ %11, %20 ], [ %11, %22 ]
  %34 = call noundef zeroext i1 @_ZN23lackr_model_constructor3imp5checkEv(ptr noundef nonnull align 8 dereferenceable(568) %33)
  %not. = xor i1 %34, true
  %35 = zext i1 %not. to i32
  %36 = getelementptr inbounds nuw i8, ptr %0, i64 16
  store i32 %35, ptr %36, align 8, !tbaa !17
  ret i1 %34

37:                                               ; preds = %_ZN3refI9ackr_infoEC2ERKS1_.exit
  %38 = landingpad { ptr, i32 }
          cleanup
  call void @_ZN3refI9ackr_infoED2Ev(ptr noundef nonnull align 8 dereferenceable(8) %3) #19
  resume { ptr, i32 } %38
}